target datalayout = "e-m:e-p270:32:32-p271:32:32-p272:64:64-i64:64-i128:128-f80:128-n8:16:32:64-S128"
target triple = "x86_64-pc-linux-gnu"

%"class.llvm::StringRef" = type { ptr, i64 }
%"class.llvm::raw_ostream" = type { ptr, i32, ptr, ptr, ptr, i8, i32 }
%"class.std::unique_ptr" = type { %"struct.std::__uniq_ptr_data" }
%"struct.std::__uniq_ptr_data" = type { %"class.std::__uniq_ptr_impl" }
%"class.std::__uniq_ptr_impl" = type { %"class.std::tuple" }
%"class.std::tuple" = type { %"struct.std::_Tuple_impl" }
%"struct.std::_Tuple_impl" = type { %"struct.std::_Head_base.1" }
%"struct.std::_Head_base.1" = type { ptr }
%"class.llvm::SmallVectorBase.86" = type { ptr, i32, i32 }
%"class.(anonymous namespace)::AssemblyWriter" = type { ptr, ptr, ptr, %"class.std::unique_ptr", ptr, %"class.(anonymous namespace)::TypePrinting", ptr, %"class.llvm::SetVector", i8, i8, [6 x i8], %"class.llvm::DenseMap.298", %"class.llvm::SmallVector.301", %"class.llvm::SmallVector.301", %"class.llvm::DenseMap.306" }
%"class.(anonymous namespace)::TypePrinting" = type { ptr, %"class.llvm::TypeFinder", %"class.llvm::DenseMap.285", %"class.std::vector.280" }
%"class.llvm::TypeFinder" = type <{ %"class.llvm::DenseSet", %"class.llvm::DenseSet.265", %"class.llvm::DenseSet.270", %"class.llvm::DenseSet.275", %"class.std::vector.280", i8, [7 x i8] }>
%"class.llvm::DenseSet" = type { %"class.llvm::detail::DenseSetImpl" }
%"class.llvm::detail::DenseSetImpl" = type { %"class.llvm::DenseMap.262" }
%"class.llvm::DenseMap.262" = type <{ ptr, i32, i32, i32, [4 x i8] }>
%"class.llvm::DenseSet.265" = type { %"class.llvm::detail::DenseSetImpl.266" }
%"class.llvm::detail::DenseSetImpl.266" = type { %"class.llvm::DenseMap.267" }
%"class.llvm::DenseMap.267" = type <{ ptr, i32, i32, i32, [4 x i8] }>
%"class.llvm::DenseSet.270" = type { %"class.llvm::detail::DenseSetImpl.271" }
%"class.llvm::detail::DenseSetImpl.271" = type { %"class.llvm::DenseMap.272" }
%"class.llvm::DenseMap.272" = type <{ ptr, i32, i32, i32, [4 x i8] }>
%"class.llvm::DenseSet.275" = type { %"class.llvm::detail::DenseSetImpl.276" }
%"class.llvm::detail::DenseSetImpl.276" = type { %"class.llvm::DenseMap.277" }
%"class.llvm::DenseMap.277" = type <{ ptr, i32, i32, i32, [4 x i8] }>
%"class.llvm::DenseMap.285" = type <{ ptr, i32, i32, i32, [4 x i8] }>
%"class.std::vector.280" = type { %"struct.std::_Vector_base.281" }
%"struct.std::_Vector_base.281" = type { %"struct.std::_Vector_base<llvm::StructType *, std::allocator<llvm::StructType *>>::_Vector_impl" }
%"struct.std::_Vector_base<llvm::StructType *, std::allocator<llvm::StructType *>>::_Vector_impl" = type { %"struct.std::_Vector_base<llvm::StructType *, std::allocator<llvm::StructType *>>::_Vector_impl_data" }
%"struct.std::_Vector_base<llvm::StructType *, std::allocator<llvm::StructType *>>::_Vector_impl_data" = type { ptr, ptr, ptr }
%"class.llvm::SetVector" = type { %"class.llvm::DenseSet.288", %"class.llvm::SmallVector.293" }
%"class.llvm::DenseSet.288" = type { %"class.llvm::detail::DenseSetImpl.289" }
%"class.llvm::detail::DenseSetImpl.289" = type { %"class.llvm::DenseMap.290" }
%"class.llvm::DenseMap.290" = type <{ ptr, i32, i32, i32, [4 x i8] }>
%"class.llvm::SmallVector.293" = type { %"class.llvm::SmallVectorImpl.294" }
%"class.llvm::SmallVectorImpl.294" = type { %"class.llvm::SmallVectorTemplateBase.295" }
%"class.llvm::SmallVectorTemplateBase.295" = type { %"class.llvm::SmallVectorTemplateCommon.296" }
%"class.llvm::SmallVectorTemplateCommon.296" = type { %"class.llvm::SmallVectorBase.86" }
%"class.llvm::DenseMap.298" = type <{ ptr, i32, i32, i32, [4 x i8] }>
%"class.llvm::SmallVector.301" = type { %"class.llvm::SmallVectorImpl.302", %"struct.llvm::SmallVectorStorage.305" }
%"class.llvm::SmallVectorImpl.302" = type { %"class.llvm::SmallVectorTemplateBase.303" }
%"class.llvm::SmallVectorTemplateBase.303" = type { %"class.llvm::SmallVectorTemplateCommon.304" }
%"class.llvm::SmallVectorTemplateCommon.304" = type { %"class.llvm::SmallVectorBase.86" }
%"struct.llvm::SmallVectorStorage.305" = type { [128 x i8] }
%"class.llvm::DenseMap.306" = type <{ ptr, i32, i32, i32, [4 x i8] }>

@.str.346 = private unnamed_addr constant [13 x i8] c" syncscope(\22\00", align 1
@.str.347 = private unnamed_addr constant [3 x i8] c"\22)\00", align 1

; Function Attrs: mustprogress nounwind uwtable
define linkonce_odr hidden noundef ptr @_ZNK4llvm9StringRef4dataEv(ptr noundef nonnull align 8 dereferenceable(16) %0) #0 comdat align 2 {
  %2 = alloca ptr, align 8
  store ptr %0, ptr %2, align 8
  %3 = load ptr, ptr %2, align 8
  %4 = getelementptr inbounds nuw %"class.llvm::StringRef", ptr %3, i32 0, i32 0
  %5 = load ptr, ptr %4, align 8
  ret ptr %5
}

; Function Attrs: mustprogress nounwind uwtable
define linkonce_odr hidden noundef i64 @_ZNK4llvm9StringRef4sizeEv(ptr noundef nonnull align 8 dereferenceable(16) %0) #0 comdat align 2 {
  %2 = alloca ptr, align 8
  store ptr %0, ptr %2, align 8
  %3 = load ptr, ptr %2, align 8
  %4 = getelementptr inbounds nuw %"class.llvm::StringRef", ptr %3, i32 0, i32 1
  %5 = load i64, ptr %4, align 8
  ret i64 %5
}

; Function Attrs: mustprogress nounwind uwtable
define linkonce_odr hidden noundef i64 @_ZNSt11char_traitsIcE6lengthEPKc(ptr noundef %0) #0 comdat align 2 {
  %2 = alloca ptr, align 8
  store ptr %0, ptr %2, align 8
  %3 = load ptr, ptr %2, align 8
  %4 = call i64 @strlen(ptr noundef %3) #11
  ret i64 %4
}

; Function Attrs: mustprogress nounwind uwtable
define linkonce_odr hidden noundef ptr @_ZN4llvm25SmallVectorTemplateCommonINS_9StringRefEvE5beginEv(ptr noundef nonnull align 8 dereferenceable(16) %0) #0 comdat align 2 {
  %2 = alloca ptr, align 8
  store ptr %0, ptr %2, align 8
  %3 = load ptr, ptr %2, align 8
  %4 = getelementptr inbounds nuw %"class.llvm::SmallVectorBase.86", ptr %3, i32 0, i32 0
  %5 = load ptr, ptr %4, align 8
  ret ptr %5
}

; Function Attrs: mustprogress nounwind uwtable
define linkonce_odr hidden noundef nonnull align 8 dereferenceable(48) ptr @_ZN4llvm11raw_ostreamlsENS_9StringRefE(ptr noundef nonnull align 8 dereferenceable(48) %0, ptr %1, i64 %2) #0 comdat align 2 {
  %4 = alloca ptr, align 8
  %5 = alloca %"class.llvm::StringRef", align 8
  %6 = alloca ptr, align 8
  %7 = alloca i64, align 8
  %8 = getelementptr inbounds nuw { ptr, i64 }, ptr %5, i32 0, i32 0
  store ptr %1, ptr %8, align 8
  %9 = getelementptr inbounds nuw { ptr, i64 }, ptr %5, i32 0, i32 1
  store i64 %2, ptr %9, align 8
  store ptr %0, ptr %6, align 8
  %10 = load ptr, ptr %6, align 8
  %11 = call noundef i64 @_ZNK4llvm9StringRef4sizeEv(ptr noundef nonnull align 8 dereferenceable(16) %5)
  store i64 %11, ptr %7, align 8
  %12 = load i64, ptr %7, align 8
  %13 = getelementptr inbounds nuw %"class.llvm::raw_ostream", ptr %10, i32 0, i32 3
  %14 = load ptr, ptr %13, align 8
  %15 = getelementptr inbounds nuw %"class.llvm::raw_ostream", ptr %10, i32 0, i32 4
  %16 = load ptr, ptr %15, align 8
  %17 = ptrtoint ptr %14 to i64
  %18 = ptrtoint ptr %16 to i64
  %19 = sub i64 %17, %18
  %20 = icmp ugt i64 %12, %19
  br i1 %20, label %21, label %25

21:                                               ; preds = %3
  %22 = call noundef ptr @_ZNK4llvm9StringRef4dataEv(ptr noundef nonnull align 8 dereferenceable(16) %5)
  %23 = load i64, ptr %7, align 8
  %24 = call noundef nonnull align 8 dereferenceable(48) ptr @_ZN4llvm11raw_ostream5writeEPKcm(ptr noundef nonnull align 8 dereferenceable(48) %10, ptr noundef %22, i64 noundef %23)
  store ptr %24, ptr %4, align 8
  br label %38

25:                                               ; preds = %3
  %26 = load i64, ptr %7, align 8
  %27 = icmp ne i64 %26, 0
  br i1 %27, label %28, label %37

28:                                               ; preds = %25
  %29 = getelementptr inbounds nuw %"class.llvm::raw_ostream", ptr %10, i32 0, i32 4
  %30 = load ptr, ptr %29, align 8
  %31 = call noundef ptr @_ZNK4llvm9StringRef4dataEv(ptr noundef nonnull align 8 dereferenceable(16) %5)
  %32 = load i64, ptr %7, align 8
  call void @llvm.memcpy.p0.p0.i64(ptr align 1 %30, ptr align 1 %31, i64 %32, i1 false)
  %33 = load i64, ptr %7, align 8
  %34 = getelementptr inbounds nuw %"class.llvm::raw_ostream", ptr %10, i32 0, i32 4
  %35 = load ptr, ptr %34, align 8
  %36 = getelementptr inbounds i8, ptr %35, i64 %33
  store ptr %36, ptr %34, align 8
  br label %37

37:                                               ; preds = %28, %25
  store ptr %10, ptr %4, align 8
  br label %38

38:                                               ; preds = %37, %21
  %39 = load ptr, ptr %4, align 8
  ret ptr %39
}

; Function Attrs: mustprogress nounwind uwtable
define linkonce_odr hidden void @_ZN4llvm9StringRefC2EPKc(ptr noundef nonnull align 8 dereferenceable(16) %0, ptr noundef %1) unnamed_addr #0 comdat align 2 {
  %3 = alloca ptr, align 8
  %4 = alloca ptr, align 8
  store ptr %0, ptr %3, align 8
  store ptr %1, ptr %4, align 8
  %5 = load ptr, ptr %3, align 8
  %6 = getelementptr inbounds nuw %"class.llvm::StringRef", ptr %5, i32 0, i32 0
  %7 = load ptr, ptr %4, align 8
  store ptr %7, ptr %6, align 8
  %8 = getelementptr inbounds nuw %"class.llvm::StringRef", ptr %5, i32 0, i32 1
  %9 = load ptr, ptr %4, align 8
  %10 = icmp ne ptr %9, null
  br i1 %10, label %11, label %14

11:                                               ; preds = %2
  %12 = load ptr, ptr %4, align 8
  %13 = call noundef i64 @_ZNSt11char_traitsIcE6lengthEPKc(ptr noundef %12)
  br label %15

14:                                               ; preds = %2
  br label %15

15:                                               ; preds = %14, %11
  %16 = phi i64 [ %13, %11 ], [ 0, %14 ]
  store i64 %16, ptr %8, align 8
  ret void
}

; Function Attrs: mustprogress nounwind uwtable
define linkonce_odr hidden noundef nonnull align 8 dereferenceable(16) ptr @_ZN4llvm25SmallVectorTemplateCommonINS_9StringRefEvEixEm(ptr noundef nonnull align 8 dereferenceable(16) %0, i64 noundef %1) #0 comdat align 2 {
  %3 = alloca ptr, align 8
  %4 = alloca i64, align 8
  store ptr %0, ptr %3, align 8
  store i64 %1, ptr %4, align 8
  %5 = load ptr, ptr %3, align 8
  %6 = call noundef ptr @_ZN4llvm25SmallVectorTemplateCommonINS_9StringRefEvE5beginEv(ptr noundef nonnull align 8 dereferenceable(16) %5)
  %7 = load i64, ptr %4, align 8
  %8 = getelementptr inbounds %"class.llvm::StringRef", ptr %6, i64 %7
  ret ptr %8
}

; Function Attrs: mustprogress nounwind uwtable
define linkonce_odr hidden noundef nonnull align 8 dereferenceable(48) ptr @_ZN4llvm11raw_ostreamlsEPKc(ptr noundef nonnull align 8 dereferenceable(48) %0, ptr noundef %1) #0 comdat align 2 {
  %3 = alloca ptr, align 8
  %4 = alloca ptr, align 8
  %5 = alloca %"class.llvm::StringRef", align 8
  store ptr %0, ptr %3, align 8
  store ptr %1, ptr %4, align 8
  %6 = load ptr, ptr %3, align 8
  %7 = load ptr, ptr %4, align 8
  call void @_ZN4llvm9StringRefC2EPKc(ptr noundef nonnull align 8 dereferenceable(16) %5, ptr noundef %7)
  %8 = getelementptr inbounds nuw { ptr, i64 }, ptr %5, i32 0, i32 0
  %9 = load ptr, ptr %8, align 8
  %10 = getelementptr inbounds nuw { ptr, i64 }, ptr %5, i32 0, i32 1
  %11 = load i64, ptr %10, align 8
  %12 = call noundef nonnull align 8 dereferenceable(48) ptr @_ZN4llvm11raw_ostreamlsENS_9StringRefE(ptr noundef nonnull align 8 dereferenceable(48) %6, ptr %9, i64 %11)
  ret ptr %12
}

; Function Attrs: mustprogress nounwind uwtable
define internal void @_ZN12_GLOBAL__N_114AssemblyWriter14writeSyncScopeERKN4llvm11LLVMContextEh(ptr noundef nonnull align 8 dereferenceable(616) %0, ptr noundef nonnull align 8 dereferenceable(8) %1, i8 noundef zeroext %2) #0 align 2 {
  %4 = alloca ptr, align 8
  %5 = alloca ptr, align 8
  %6 = alloca i8, align 1
  %7 = alloca %"class.llvm::StringRef", align 8
  store ptr %0, ptr %4, align 8
  store ptr %1, ptr %5, align 8
  store i8 %2, ptr %6, align 1
  %8 = load ptr, ptr %4, align 8
  %9 = load i8, ptr %6, align 1
  %10 = zext i8 %9 to i32
  switch i32 %10, label %12 [
    i32 1, label %11
  ]

11:                                               ; preds = %3
  br label %35

12:                                               ; preds = %3
  %13 = getelementptr inbounds nuw %"class.(anonymous namespace)::AssemblyWriter", ptr %8, i32 0, i32 13
  %14 = call noundef zeroext i1 @_ZNK4llvm15SmallVectorBaseIjE5emptyEv(ptr noundef nonnull align 8 dereferenceable(16) %13)
  br i1 %14, label %15, label %18

15:                                               ; preds = %12
  %16 = load ptr, ptr %5, align 8
  %17 = getelementptr inbounds nuw %"class.(anonymous namespace)::AssemblyWriter", ptr %8, i32 0, i32 13
  call void @_ZNK4llvm11LLVMContext17getSyncScopeNamesERNS_15SmallVectorImplINS_9StringRefEEE(ptr noundef nonnull align 8 dereferenceable(8) %16, ptr noundef nonnull align 8 dereferenceable(16) %17)
  br label %18

18:                                               ; preds = %15, %12
  %19 = getelementptr inbounds nuw %"class.(anonymous namespace)::AssemblyWriter", ptr %8, i32 0, i32 0
  %20 = load ptr, ptr %19, align 8
  %21 = call noundef nonnull align 8 dereferenceable(48) ptr @_ZN4llvm11raw_ostreamlsEPKc(ptr noundef nonnull align 8 dereferenceable(48) %20, ptr noundef @.str.346)
  %22 = getelementptr inbounds nuw %"class.(anonymous namespace)::AssemblyWriter", ptr %8, i32 0, i32 13
  %23 = load i8, ptr %6, align 1
  %24 = zext i8 %23 to i64
  %25 = call noundef nonnull align 8 dereferenceable(16) ptr @_ZN4llvm25SmallVectorTemplateCommonINS_9StringRefEvEixEm(ptr noundef nonnull align 8 dereferenceable(16) %22, i64 noundef %24)
  call void @llvm.memcpy.p0.p0.i64(ptr align 8 %7, ptr align 8 %25, i64 16, i1 false)
  %26 = getelementptr inbounds nuw %"class.(anonymous namespace)::AssemblyWriter", ptr %8, i32 0, i32 0
  %27 = load ptr, ptr %26, align 8
  %28 = getelementptr inbounds nuw { ptr, i64 }, ptr %7, i32 0, i32 0
  %29 = load ptr, ptr %28, align 8
  %30 = getelementptr inbounds nuw { ptr, i64 }, ptr %7, i32 0, i32 1
  %31 = load i64, ptr %30, align 8
  call void @_ZN4llvm18printEscapedStringENS_9StringRefERNS_11raw_ostreamE(ptr %29, i64 %31, ptr noundef nonnull align 8 dereferenceable(48) %27)
  %32 = getelementptr inbounds nuw %"class.(anonymous namespace)::AssemblyWriter", ptr %8, i32 0, i32 0
  %33 = load ptr, ptr %32, align 8
  %34 = call noundef nonnull align 8 dereferenceable(48) ptr @_ZN4llvm11raw_ostreamlsEPKc(ptr noundef nonnull align 8 dereferenceable(48) %33, ptr noundef @.str.347)
  br label %35

35:                                               ; preds = %18, %11
  ret void
}