; Function Attrs: mustprogress nounwind uwtable
define internal fastcc void @_ZN12_GLOBAL__N_114AssemblyWriter14writeSyncScopeERKN4llvm11LLVMContextEh(ptr noundef nonnull align 8 dereferenceable(616) %0, ptr noundef nonnull align 8 dereferenceable(8) %1, i8 noundef zeroext %2) unnamed_addr #1 align 2 {
  %cond = icmp eq i8 %2, 1
  br i1 %cond, label %_ZN4llvm11raw_ostreamlsEPKc.exit5, label %4

4:                                                ; preds = %3
  %5 = getelementptr inbounds nuw i8, ptr %0, i64 448
  %6 = tail call noundef zeroext i1 @_ZNK4llvm15SmallVectorBaseIjE5emptyEv(ptr noundef nonnull align 8 dereferenceable(16) %5) #25
  br i1 %6, label %7, label %8

7:                                                ; preds = %4
  tail call void @_ZNK4llvm11LLVMContext17getSyncScopeNamesERNS_15SmallVectorImplINS_9StringRefEEE(ptr noundef nonnull align 8 dereferenceable(8) %1, ptr noundef nonnull align 8 dereferenceable(16) %5) #25
  br label %8

8:                                                ; preds = %7, %4
  %9 = load ptr, ptr %0, align 8
  %10 = getelementptr inbounds nuw i8, ptr %9, i64 24
  %11 = load ptr, ptr %10, align 8
  %12 = getelementptr inbounds nuw i8, ptr %9, i64 32
  %13 = load ptr, ptr %12, align 8
  %14 = ptrtoint ptr %11 to i64
  %15 = ptrtoint ptr %13 to i64
  %16 = sub i64 %14, %15
  %17 = icmp ult i64 %16, 12
  br i1 %17, label %18, label %20

18:                                               ; preds = %8
  %19 = tail call noundef nonnull align 8 dereferenceable(48) ptr @_ZN4llvm11raw_ostream5writeEPKcm(ptr noundef nonnull align 8 dereferenceable(48) %9, ptr noundef nonnull @.str.346, i64 noundef 12) #25
  br label %_ZN4llvm11raw_ostreamlsEPKc.exit

20:                                               ; preds = %8
  tail call void @llvm.memcpy.p0.p0.i64(ptr noundef nonnull align 1 dereferenceable(12) %13, ptr noundef nonnull align 1 dereferenceable(12) @.str.346, i64 12, i1 false)
  %21 = load ptr, ptr %12, align 8
  %22 = getelementptr inbounds i8, ptr %21, i64 12
  store ptr %22, ptr %12, align 8
  br label %_ZN4llvm11raw_ostreamlsEPKc.exit

_ZN4llvm11raw_ostreamlsEPKc.exit:                 ; preds = %18, %20
  %23 = zext i8 %2 to i64
  %24 = load ptr, ptr %5, align 8
  %25 = getelementptr inbounds %"class.llvm::StringRef", ptr %24, i64 %23
  %.sroa.0.0.copyload = load ptr, ptr %25, align 8
  %.sroa.2.0..sroa_idx = getelementptr inbounds i8, ptr %25, i64 8
  %.sroa.2.0.copyload = load i64, ptr %.sroa.2.0..sroa_idx, align 8
  %26 = load ptr, ptr %0, align 8
  tail call void @_ZN4llvm18printEscapedStringENS_9StringRefERNS_11raw_ostreamE(ptr %.sroa.0.0.copyload, i64 %.sroa.2.0.copyload, ptr noundef nonnull align 8 dereferenceable(48) %26) #25
  %27 = load ptr, ptr %0, align 8
  %28 = getelementptr inbounds nuw i8, ptr %27, i64 24
  %29 = load ptr, ptr %28, align 8
  %30 = getelementptr inbounds nuw i8, ptr %27, i64 32
  %31 = load ptr, ptr %30, align 8
  %32 = ptrtoint ptr %29 to i64
  %33 = ptrtoint ptr %31 to i64
  %34 = sub i64 %32, %33
  %35 = icmp ult i64 %34, 2
  br i1 %35, label %36, label %38

36:                                               ; preds = %_ZN4llvm11raw_ostreamlsEPKc.exit
  %37 = tail call noundef nonnull align 8 dereferenceable(48) ptr @_ZN4llvm11raw_ostream5writeEPKcm(ptr noundef nonnull align 8 dereferenceable(48) %27, ptr noundef nonnull @.str.347, i64 noundef 2) #25
  br label %_ZN4llvm11raw_ostreamlsEPKc.exit5

38:                                               ; preds = %_ZN4llvm11raw_ostreamlsEPKc.exit
  store i16 10530, ptr %31, align 1
  %39 = load ptr, ptr %30, align 8
  %40 = getelementptr inbounds i8, ptr %39, i64 2
  store ptr %40, ptr %30, align 8
  br label %_ZN4llvm11raw_ostreamlsEPKc.exit5

_ZN4llvm11raw_ostreamlsEPKc.exit5:                ; preds = %38, %36, %3
  ret void
}